target datalayout = "e-m:e-p270:32:32-p271:32:32-p272:64:64-i64:64-i128:128-f80:128-n8:16:32:64-S128"
target triple = "x86_64-pc-linux-gnu"

%"class.clang::ento::WorkList" = type { ptr, %"class.clang::ento::BlockCounter" }
%"class.clang::ento::BlockCounter" = type { ptr }
%"class.llvm::SmallVector" = type { %"class.llvm::SmallVectorImpl", %"struct.llvm::SmallVectorStorage" }
%"class.llvm::SmallVectorImpl" = type { %"class.llvm::SmallVectorTemplateBase" }
%"class.llvm::SmallVectorTemplateBase" = type { %"class.llvm::SmallVectorTemplateCommon" }
%"class.llvm::SmallVectorTemplateCommon" = type { %"class.llvm::SmallVectorBase" }
%"class.llvm::SmallVectorBase" = type { ptr, i32, i32 }
%"struct.llvm::SmallVectorStorage" = type { [640 x i8] }
%"class.clang::ento::WorkListUnit" = type <{ ptr, %"class.clang::ento::BlockCounter", ptr, i32, [4 x i8] }>
%"class.(anonymous namespace)::UnexploredFirstStack" = type { %"class.clang::ento::WorkList", %"class.llvm::SmallVector", %"class.llvm::SmallVector", %"class.llvm::DenseSet" }
%"class.llvm::DenseSet" = type { %"class.llvm::detail::DenseSetImpl" }
%"class.llvm::detail::DenseSetImpl" = type { %"class.llvm::DenseMap" }
%"class.llvm::DenseMap" = type <{ ptr, i32, i32, i32, [4 x i8] }>

; Function Attrs: mustprogress nounwind uwtable
define linkonce_odr hidden noundef ptr @_ZN4llvm25SmallVectorTemplateCommonIN5clang4ento12WorkListUnitEvE5beginEv(ptr noundef nonnull align 8 dereferenceable(16) %0) #1 comdat align 2 {
  %2 = alloca ptr, align 8
  store ptr %0, ptr %2, align 8
  %3 = load ptr, ptr %2, align 8
  %4 = getelementptr inbounds nuw %"class.llvm::SmallVectorBase", ptr %3, i32 0, i32 0
  %5 = load ptr, ptr %4, align 8
  ret ptr %5
}

; Function Attrs: mustprogress nounwind uwtable
define linkonce_odr hidden noundef ptr @_ZN4llvm25SmallVectorTemplateCommonIN5clang4ento12WorkListUnitEvE3endEv(ptr noundef nonnull align 8 dereferenceable(16) %0) #1 comdat align 2 {
  %2 = alloca ptr, align 8
  store ptr %0, ptr %2, align 8
  %3 = load ptr, ptr %2, align 8
  %4 = call noundef ptr @_ZN4llvm25SmallVectorTemplateCommonIN5clang4ento12WorkListUnitEvE5beginEv(ptr noundef nonnull align 8 dereferenceable(16) %3)
  %5 = call noundef i64 @_ZNK4llvm15SmallVectorBaseIjE4sizeEv(ptr noundef nonnull align 8 dereferenceable(16) %3)
  %6 = getelementptr inbounds %"class.clang::ento::WorkListUnit", ptr %4, i64 %5
  ret ptr %6
}

; Function Attrs: mustprogress nounwind uwtable
define linkonce_odr hidden void @_ZN4llvm23SmallVectorTemplateBaseIN5clang4ento12WorkListUnitELb1EE8pop_backEv(ptr noundef nonnull align 8 dereferenceable(16) %0) #1 comdat align 2 {
  %2 = alloca ptr, align 8
  store ptr %0, ptr %2, align 8
  %3 = load ptr, ptr %2, align 8
  %4 = call noundef i64 @_ZNK4llvm15SmallVectorBaseIjE4sizeEv(ptr noundef nonnull align 8 dereferenceable(16) %3)
  %5 = sub i64 %4, 1
  call void @_ZN4llvm15SmallVectorBaseIjE8set_sizeEm(ptr noundef nonnull align 8 dereferenceable(16) %3, i64 noundef %5)
  ret void
}

; Function Attrs: mustprogress nounwind uwtable
define linkonce_odr hidden noundef nonnull align 8 dereferenceable(28) ptr @_ZN4llvm25SmallVectorTemplateCommonIN5clang4ento12WorkListUnitEvE4backEv(ptr noundef nonnull align 8 dereferenceable(16) %0) #1 comdat align 2 {
  %2 = alloca ptr, align 8
  store ptr %0, ptr %2, align 8
  %3 = load ptr, ptr %2, align 8
  %4 = call noundef ptr @_ZN4llvm25SmallVectorTemplateCommonIN5clang4ento12WorkListUnitEvE3endEv(ptr noundef nonnull align 8 dereferenceable(16) %3)
  %5 = getelementptr inbounds %"class.clang::ento::WorkListUnit", ptr %4, i64 -1
  ret ptr %5
}

; Function Attrs: mustprogress nounwind uwtable
define internal void @_ZN12_GLOBAL__N_120UnexploredFirstStack7dequeueEv(ptr dead_on_unwind noalias writable sret(%"class.clang::ento::WorkListUnit") align 8 %0, ptr noundef nonnull align 8 dereferenceable(1352) %1) unnamed_addr #1 align 2 {
  %3 = alloca ptr, align 8
  %4 = alloca ptr, align 8
  %5 = alloca ptr, align 8
  store ptr %1, ptr %3, align 8
  %6 = load ptr, ptr %3, align 8
  %7 = getelementptr inbounds nuw %"class.(anonymous namespace)::UnexploredFirstStack", ptr %6, i32 0, i32 1
  %8 = call noundef zeroext i1 @_ZNK4llvm15SmallVectorBaseIjE5emptyEv(ptr noundef nonnull align 8 dereferenceable(16) %7)
  br i1 %8, label %14, label %9

9:                                                ; preds = %2
  %10 = getelementptr inbounds nuw %"class.(anonymous namespace)::UnexploredFirstStack", ptr %6, i32 0, i32 1
  %11 = call noundef nonnull align 8 dereferenceable(28) ptr @_ZN4llvm25SmallVectorTemplateCommonIN5clang4ento12WorkListUnitEvE4backEv(ptr noundef nonnull align 8 dereferenceable(16) %10)
  store ptr %11, ptr %4, align 8
  %12 = getelementptr inbounds nuw %"class.(anonymous namespace)::UnexploredFirstStack", ptr %6, i32 0, i32 1
  call void @_ZN4llvm23SmallVectorTemplateBaseIN5clang4ento12WorkListUnitELb1EE8pop_backEv(ptr noundef nonnull align 8 dereferenceable(16) %12)
  %13 = load ptr, ptr %4, align 8
  call void @llvm.memcpy.p0.p0.i64(ptr align 8 %0, ptr align 8 %13, i64 32, i1 false)
  br label %19

14:                                               ; preds = %2
  %15 = getelementptr inbounds nuw %"class.(anonymous namespace)::UnexploredFirstStack", ptr %6, i32 0, i32 2
  %16 = call noundef nonnull align 8 dereferenceable(28) ptr @_ZN4llvm25SmallVectorTemplateCommonIN5clang4ento12WorkListUnitEvE4backEv(ptr noundef nonnull align 8 dereferenceable(16) %15)
  store ptr %16, ptr %5, align 8
  %17 = getelementptr inbounds nuw %"class.(anonymous namespace)::UnexploredFirstStack", ptr %6, i32 0, i32 2
  call void @_ZN4llvm23SmallVectorTemplateBaseIN5clang4ento12WorkListUnitELb1EE8pop_backEv(ptr noundef nonnull align 8 dereferenceable(16) %17)
  %18 = load ptr, ptr %5, align 8
  call void @llvm.memcpy.p0.p0.i64(ptr align 8 %0, ptr align 8 %18, i64 32, i1 false)
  br label %19

19:                                               ; preds = %14, %9
  ret void
}