; Function Attrs: mustprogress nounwind uwtable
define internal void @_ZN12_GLOBAL__N_120UnexploredFirstStack7dequeueEv(ptr dead_on_unwind noalias writable writeonly sret(%"class.clang::ento::WorkListUnit") align 8 captures(none) initializes((0, 32)) %0, ptr noundef nonnull align 8 dereferenceable(1352) %1) unnamed_addr #3 align 2 {
  %3 = getelementptr inbounds nuw i8, ptr %1, i64 16
  %4 = tail call noundef zeroext i1 @_ZNK4llvm15SmallVectorBaseIjE5emptyEv(ptr noundef nonnull align 8 dereferenceable(16) %3) #17
  %5 = getelementptr inbounds nuw i8, ptr %1, i64 672
  %6 = load ptr, ptr %5, align 8
  %7 = load ptr, ptr %3, align 8
  %.sink9 = select i1 %4, ptr %5, ptr %3
  %.sink = select i1 %4, ptr %6, ptr %7
  %8 = tail call noundef i64 @_ZNK4llvm15SmallVectorBaseIjE4sizeEv(ptr noundef nonnull align 8 dereferenceable(16) %.sink9) #17
  %9 = getelementptr inbounds %"class.clang::ento::WorkListUnit", ptr %.sink, i64 %8
  %10 = getelementptr inbounds i8, ptr %9, i64 -32
  %11 = tail call noundef i64 @_ZNK4llvm15SmallVectorBaseIjE4sizeEv(ptr noundef nonnull align 8 dereferenceable(16) %.sink9) #17
  %12 = add i64 %11, -1
  tail call void @_ZN4llvm15SmallVectorBaseIjE8set_sizeEm(ptr noundef nonnull align 8 dereferenceable(16) %.sink9, i64 noundef %12) #17
  tail call void @llvm.memcpy.p0.p0.i64(ptr noundef nonnull align 8 dereferenceable(32) %0, ptr noundef nonnull align 8 dereferenceable(32) %10, i64 32, i1 false)
  ret void
}